; ModuleID = '16/947.cpp'
source_filename = "16/947.cpp"
target datalayout = "e-m:e-p270:32:32-p271:32:32-p272:64:64-i64:64-f80:128-n8:16:32:64-S128"
target triple = "x86_64-pc-linux-gnu"

%"class.std::ios_base::Init" = type { i8 }
%"class.std::basic_istream" = type { i32 (...)**, i64, %"class.std::basic_ios" }
%"class.std::basic_ios" = type { %"class.std::ios_base", %"class.std::basic_ostream"*, i8, i8, %"class.std::basic_streambuf"*, %"class.std::ctype"*, %"class.std::num_put"*, %"class.std::num_get"* }
%"class.std::ios_base" = type { i32 (...)**, i64, i64, i32, i32, i32, %"struct.std::ios_base::_Callback_list"*, %"struct.std::ios_base::_Words", [8 x %"struct.std::ios_base::_Words"], i32, %"struct.std::ios_base::_Words"*, %"class.std::locale" }
%"struct.std::ios_base::_Callback_list" = type { %"struct.std::ios_base::_Callback_list"*, void (i32, %"class.std::ios_base"*, i32)*, i32, i32 }
%"struct.std::ios_base::_Words" = type { i8*, i64 }
%"class.std::locale" = type { %"class.std::locale::_Impl"* }
%"class.std::locale::_Impl" = type { i32, %"class.std::locale::facet"**, i64, %"class.std::locale::facet"**, i8** }
%"class.std::locale::facet" = type <{ i32 (...)**, i32, [4 x i8] }>
%"class.std::basic_ostream" = type { i32 (...)**, %"class.std::basic_ios" }
%"class.std::basic_streambuf" = type { i32 (...)**, i8*, i8*, i8*, i8*, i8*, i8*, %"class.std::locale" }
%"class.std::ctype" = type <{ %"class.std::locale::facet.base", [4 x i8], %struct.__locale_struct*, i8, [7 x i8], i32*, i32*, i16*, i8, [256 x i8], [256 x i8], i8, [6 x i8] }>
%"class.std::locale::facet.base" = type <{ i32 (...)**, i32 }>
%struct.__locale_struct = type { [13 x %struct.__locale_data*], i16*, i32*, i32*, [13 x i8*] }
%struct.__locale_data = type opaque
%"class.std::num_put" = type { %"class.std::locale::facet.base", [4 x i8] }
%"class.std::num_get" = type { %"class.std::locale::facet.base", [4 x i8] }

$_ZSt3powIidEN9__gnu_cxx11__promote_2IT_T0_NS0_9__promoteIS2_Xsr3std12__is_integerIS2_EE7__valueEE6__typeENS4_IS3_Xsr3std12__is_integerIS3_EE7__valueEE6__typeEE6__typeES2_S3_ = comdat any

@_ZStL8__ioinit = internal global %"class.std::ios_base::Init" zeroinitializer, align 1
@__dso_handle = external hidden global i8
@_ZSt3cin = external dso_local global %"class.std::basic_istream", align 8
@_ZSt4cout = external dso_local global %"class.std::basic_ostream", align 8
@llvm.global_ctors = appending global [1 x { i32, void ()*, i8* }] [{ i32, void ()*, i8* } { i32 65535, void ()* @_GLOBAL__sub_I_947.cpp, i8* null }]

; Function Attrs: noinline uwtable
define internal void @__cxx_global_var_init() #0 section ".text.startup" {
  call void @_ZNSt8ios_base4InitC1Ev(%"class.std::ios_base::Init"* @_ZStL8__ioinit)
  %1 = call i32 @__cxa_atexit(void (i8*)* bitcast (void (%"class.std::ios_base::Init"*)* @_ZNSt8ios_base4InitD1Ev to void (i8*)*), i8* getelementptr inbounds (%"class.std::ios_base::Init", %"class.std::ios_base::Init"* @_ZStL8__ioinit, i32 0, i32 0), i8* @__dso_handle) #3
  ret void
}

declare dso_local void @_ZNSt8ios_base4InitC1Ev(%"class.std::ios_base::Init"*) unnamed_addr #1

; Function Attrs: nounwind
declare dso_local void @_ZNSt8ios_base4InitD1Ev(%"class.std::ios_base::Init"*) unnamed_addr #2

; Function Attrs: nounwind
declare dso_local i32 @__cxa_atexit(void (i8*)*, i8*, i8*) #3

; Function Attrs: noinline norecurse uwtable
define dso_local i32 @main() #4 {
  %1 = alloca i32, align 4
  %2 = alloca i32, align 4
  %3 = alloca i32, align 4
  %4 = alloca i32, align 4
  %5 = alloca double, align 8
  store i32 0, i32* %1, align 4
  %6 = call dereferenceable(280) %"class.std::basic_istream"* @_ZNSirsERi(%"class.std::basic_istream"* @_ZSt3cin, i32* dereferenceable(4) %2)
  %7 = load i32, i32* %2, align 4
  %8 = icmp slt i32 %7, 10
  br i1 %8, label %9, label %12

9:                                                ; preds = %0
  %10 = load i32, i32* %2, align 4
  %11 = call dereferenceable(272) %"class.std::basic_ostream"* @_ZNSolsEi(%"class.std::basic_ostream"* @_ZSt4cout, i32 %10)
  br label %92

12:                                               ; preds = %0
  %13 = load i32, i32* %2, align 4
  %14 = icmp sge i32 %13, 10
  br i1 %14, label %15, label %44

15:                                               ; preds = %12
  %16 = load i32, i32* %2, align 4
  %17 = icmp slt i32 %16, 100
  br i1 %17, label %18, label %44

18:                                               ; preds = %15
  store double 1.000000e+00, double* %5, align 8
  br label %19

19:                                               ; preds = %40, %18
  %20 = load double, double* %5, align 8
  %21 = fcmp ole double %20, 2.000000e+00
  br i1 %21, label %22, label %43

22:                                               ; preds = %19
  %23 = load i32, i32* %2, align 4
  %24 = load double, double* %5, align 8
  %25 = call double @_ZSt3powIidEN9__gnu_cxx11__promote_2IT_T0_NS0_9__promoteIS2_Xsr3std12__is_integerIS2_EE7__valueEE6__typeENS4_IS3_Xsr3std12__is_integerIS3_EE7__valueEE6__typeEE6__typeES2_S3_(i32 10, double %24)
  %26 = fptosi double %25 to i32
  %27 = srem i32 %23, %26
  store i32 %27, i32* %3, align 4
  %28 = load i32, i32* %3, align 4
  %29 = sitofp i32 %28 to double
  %30 = load double, double* %5, align 8
  %31 = fsub double %30, 1.000000e+00
  %32 = call double @_ZSt3powIidEN9__gnu_cxx11__promote_2IT_T0_NS0_9__promoteIS2_Xsr3std12__is_integerIS2_EE7__valueEE6__typeENS4_IS3_Xsr3std12__is_integerIS3_EE7__valueEE6__typeEE6__typeES2_S3_(i32 10, double %31)
  %33 = fdiv double %29, %32
  %34 = fptosi double %33 to i32
  store i32 %34, i32* %4, align 4
  %35 = load i32, i32* %3, align 4
  %36 = load i32, i32* %2, align 4
  %37 = sub nsw i32 %36, %35
  store i32 %37, i32* %2, align 4
  %38 = load i32, i32* %4, align 4
  %39 = call dereferenceable(272) %"class.std::basic_ostream"* @_ZNSolsEi(%"class.std::basic_ostream"* @_ZSt4cout, i32 %38)
  br label %40

40:                                               ; preds = %22
  %41 = load double, double* %5, align 8
  %42 = fadd double %41, 1.000000e+00
  store double %42, double* %5, align 8
  br label %19

43:                                               ; preds = %19
  br label %91

44:                                               ; preds = %15, %12
  store double 1.000000e+00, double* %5, align 8
  br label %45

45:                                               ; preds = %66, %44
  %46 = load double, double* %5, align 8
  %47 = fcmp ole double %46, 3.000000e+00
  br i1 %47, label %48, label %69

48:                                               ; preds = %45
  %49 = load i32, i32* %2, align 4
  %50 = load double, double* %5, align 8
  %51 = call double @_ZSt3powIidEN9__gnu_cxx11__promote_2IT_T0_NS0_9__promoteIS2_Xsr3std12__is_integerIS2_EE7__valueEE6__typeENS4_IS3_Xsr3std12__is_integerIS3_EE7__valueEE6__typeEE6__typeES2_S3_(i32 10, double %50)
  %52 = fptosi double %51 to i32
  %53 = srem i32 %49, %52
  store i32 %53, i32* %3, align 4
  %54 = load i32, i32* %3, align 4
  %55 = sitofp i32 %54 to double
  %56 = load double, double* %5, align 8
  %57 = fsub double %56, 1.000000e+00
  %58 = call double @_ZSt3powIidEN9__gnu_cxx11__promote_2IT_T0_NS0_9__promoteIS2_Xsr3std12__is_integerIS2_EE7__valueEE6__typeENS4_IS3_Xsr3std12__is_integerIS3_EE7__valueEE6__typeEE6__typeES2_S3_(i32 10, double %57)
  %59 = fdiv double %55, %58
  %60 = fptosi double %59 to i32
  store i32 %60, i32* %4, align 4
  %61 = load i32, i32* %3, align 4
  %62 = load i32, i32* %2, align 4
  %63 = sub nsw i32 %62, %61
  store i32 %63, i32* %2, align 4
  %64 = load i32, i32* %4, align 4
  %65 = call dereferenceable(272) %"class.std::basic_ostream"* @_ZNSolsEi(%"class.std::basic_ostream"* @_ZSt4cout, i32 %64)
  br label %66

66:                                               ; preds = %48
  %67 = load double, double* %5, align 8
  %68 = fadd double %67, 1.000000e+00
  store double %68, double* %5, align 8
  br label %45

69:                                               ; preds = %45
  %70 = load i32, i32* %2, align 4
  %71 = load double, double* %5, align 8
  %72 = call double @_ZSt3powIidEN9__gnu_cxx11__promote_2IT_T0_NS0_9__promoteIS2_Xsr3std12__is_integerIS2_EE7__valueEE6__typeENS4_IS3_Xsr3std12__is_integerIS3_EE7__valueEE6__typeEE6__typeES2_S3_(i32 10, double %71)
  %73 = fptosi double %72 to i32
  %74 = srem i32 %70, %73
  store i32 %74, i32* %3, align 4
  %75 = load i32, i32* %3, align 4
  %76 = sitofp i32 %75 to double
  %77 = load double, double* %5, align 8
  %78 = fsub double %77, 1.000000e+00
  %79 = call double @_ZSt3powIidEN9__gnu_cxx11__promote_2IT_T0_NS0_9__promoteIS2_Xsr3std12__is_integerIS2_EE7__valueEE6__typeENS4_IS3_Xsr3std12__is_integerIS3_EE7__valueEE6__typeEE6__typeES2_S3_(i32 10, double %78)
  %80 = fdiv double %76, %79
  %81 = fptosi double %80 to i32
  store i32 %81, i32* %4, align 4
  %82 = load i32, i32* %3, align 4
  %83 = load i32, i32* %2, align 4
  %84 = sub nsw i32 %83, %82
  store i32 %84, i32* %2, align 4
  %85 = load i32, i32* %4, align 4
  %86 = icmp ne i32 %85, 0
  br i1 %86, label %87, label %90

87:                                               ; preds = %69
  %88 = load i32, i32* %4, align 4
  %89 = call dereferenceable(272) %"class.std::basic_ostream"* @_ZNSolsEi(%"class.std::basic_ostream"* @_ZSt4cout, i32 %88)
  br label %90

90:                                               ; preds = %87, %69
  br label %91

91:                                               ; preds = %90, %43
  br label %92

92:                                               ; preds = %91, %9
  ret i32 0
}

declare dso_local dereferenceable(280) %"class.std::basic_istream"* @_ZNSirsERi(%"class.std::basic_istream"*, i32* dereferenceable(4)) #1

declare dso_local dereferenceable(272) %"class.std::basic_ostream"* @_ZNSolsEi(%"class.std::basic_ostream"*, i32) #1

; Function Attrs: noinline nounwind uwtable
define linkonce_odr dso_local double @_ZSt3powIidEN9__gnu_cxx11__promote_2IT_T0_NS0_9__promoteIS2_Xsr3std12__is_integerIS2_EE7__valueEE6__typeENS4_IS3_Xsr3std12__is_integerIS3_EE7__valueEE6__typeEE6__typeES2_S3_(i32 %0, double %1) #5 comdat {
  %3 = alloca i32, align 4
  %4 = alloca double, align 8
  store i32 %0, i32* %3, align 4
  store double %1, double* %4, align 8
  %5 = load i32, i32* %3, align 4
  %6 = sitofp i32 %5 to double
  %7 = load double, double* %4, align 8
  %8 = call double @pow(double %6, double %7) #3
  ret double %8
}

; Function Attrs: nounwind
declare dso_local double @pow(double, double) #2

; Function Attrs: noinline uwtable
define internal void @_GLOBAL__sub_I_947.cpp() #0 section ".text.startup" {
  call void @__cxx_global_var_init()
  ret void
}


!llvm.module.flags = !{!0}
!llvm.ident = !{!1}

!0 = !{i32 1, !"wchar_size", i32 4}
!1 = !{!"clang version 10.0.0-4ubuntu1 "}
